target datalayout = "e-m:e-p270:32:32-p271:32:32-p272:64:64-i64:64-i128:128-f80:128-n8:16:32:64-S128"
target triple = "x86_64-pc-linux-gnu"

%struct.TwoPhaseStateData = type { ptr, i32, [0 x ptr] }
%struct.GlobalTransactionData = type { ptr, i32, i64, i64, i64, i32, i32, i32, i8, i8, i8, [200 x i8] }
%struct.PGPROC = type { %struct.dlist_node, ptr, ptr, i32, %struct.Latch, i32, i32, i32, i32, %struct.anon, i32, i32, i32, i8, i8, i8, i8, %struct.proclist_node, %struct.proclist_node, ptr, ptr, i32, i32, %struct.pg_atomic_uint64, i32, i8, i64, i32, %struct.dlist_node, [16 x %struct.dlist_head], %struct.XidCacheStatus, %struct.XidCache, i8, %struct.pg_atomic_uint32, i32, i32, i8, %struct.pg_atomic_uint32, i32, i32, i64, i64, %struct.LWLock, ptr, ptr, i8, i32, ptr, %struct.dlist_head, %struct.dlist_node }
%struct.Latch = type { i32, i32, i8, i32 }
%struct.anon = type { i32, i32 }
%struct.proclist_node = type { i32, i32 }
%struct.pg_atomic_uint64 = type { i64 }
%struct.XidCacheStatus = type { i8, i8 }
%struct.XidCache = type { [64 x i32] }
%struct.pg_atomic_uint32 = type { i32 }
%struct.LWLock = type { i16, %struct.pg_atomic_uint32, %struct.proclist_head }
%struct.proclist_head = type { i32, i32 }
%struct.dlist_head = type { %struct.dlist_node }
%struct.dlist_node = type { ptr, ptr }
%struct.PROC_HDR = type { ptr, ptr, ptr, ptr, i32, %struct.dlist_head, %struct.dlist_head, %struct.dlist_head, %struct.dlist_head, %struct.pg_atomic_uint32, %struct.pg_atomic_uint32, i32, i32, i32, i32 }

@max_prepared_xacts = dso_local global i32 0, align 4
@.str = private unnamed_addr constant [27 x i8] c"Prepared Transaction Table\00", align 1
@TwoPhaseState = internal global ptr null, align 8
@IsUnderPostmaster = external global i8, align 1
@PreparedXactProcs = external global ptr, align 8
@ProcGlobal = external global ptr, align 8

; Function Attrs: nounwind uwtable
define dso_local i64 @TwoPhaseShmemSize() #0 {
  %1 = alloca i64, align 8
  call void @llvm.lifetime.start.p0(i64 8, ptr %1) #12
  store i64 16, ptr %1, align 8
  %2 = load i64, ptr %1, align 8
  %3 = load i32, ptr @max_prepared_xacts, align 4
  %4 = sext i32 %3 to i64
  %5 = call i64 @mul_size(i64 noundef %4, i64 noundef 8)
  %6 = call i64 @add_size(i64 noundef %2, i64 noundef %5)
  store i64 %6, ptr %1, align 8
  %7 = load i64, ptr %1, align 8
  %8 = add i64 %7, 7
  %9 = and i64 %8, -8
  store i64 %9, ptr %1, align 8
  %10 = load i64, ptr %1, align 8
  %11 = load i32, ptr @max_prepared_xacts, align 4
  %12 = sext i32 %11 to i64
  %13 = call i64 @mul_size(i64 noundef %12, i64 noundef 256)
  %14 = call i64 @add_size(i64 noundef %10, i64 noundef %13)
  store i64 %14, ptr %1, align 8
  %15 = load i64, ptr %1, align 8
  call void @llvm.lifetime.end.p0(i64 8, ptr %1) #12
  ret i64 %15
}

; Function Attrs: nounwind uwtable
define dso_local void @TwoPhaseShmemInit() #0 {
  %1 = alloca i8, align 1
  %2 = alloca ptr, align 8
  %3 = alloca i32, align 4
  call void @llvm.lifetime.start.p0(i64 1, ptr %1) #12
  %4 = call i64 @TwoPhaseShmemSize()
  %5 = call ptr @ShmemInitStruct(ptr noundef @.str, i64 noundef %4, ptr noundef %1)
  store ptr %5, ptr @TwoPhaseState, align 8
  %6 = load i8, ptr @IsUnderPostmaster, align 1, !range !4, !noundef !5
  %7 = trunc i8 %6 to i1
  br i1 %7, label %62, label %8

8:                                                ; preds = %0
  call void @llvm.lifetime.start.p0(i64 8, ptr %2) #12
  call void @llvm.lifetime.start.p0(i64 4, ptr %3) #12
  %9 = load ptr, ptr @TwoPhaseState, align 8
  %10 = getelementptr inbounds nuw %struct.TwoPhaseStateData, ptr %9, i32 0, i32 0
  store ptr null, ptr %10, align 8
  %11 = load ptr, ptr @TwoPhaseState, align 8
  %12 = getelementptr inbounds nuw %struct.TwoPhaseStateData, ptr %11, i32 0, i32 1
  store i32 0, ptr %12, align 8
  %13 = load ptr, ptr @TwoPhaseState, align 8
  %14 = load i32, ptr @max_prepared_xacts, align 4
  %15 = sext i32 %14 to i64
  %16 = mul i64 8, %15
  %17 = add i64 16, %16
  %18 = add i64 %17, 7
  %19 = and i64 %18, -8
  %20 = getelementptr inbounds nuw i8, ptr %13, i64 %19
  store ptr %20, ptr %2, align 8
  store i32 0, ptr %3, align 4
  br label %21

21:                                               ; preds = %58, %8
  %22 = load i32, ptr %3, align 4
  %23 = load i32, ptr @max_prepared_xacts, align 4
  %24 = icmp slt i32 %22, %23
  br i1 %24, label %25, label %61

25:                                               ; preds = %21
  %26 = load ptr, ptr @TwoPhaseState, align 8
  %27 = getelementptr inbounds nuw %struct.TwoPhaseStateData, ptr %26, i32 0, i32 0
  %28 = load ptr, ptr %27, align 8
  %29 = load ptr, ptr %2, align 8
  %30 = load i32, ptr %3, align 4
  %31 = sext i32 %30 to i64
  %32 = getelementptr inbounds %struct.GlobalTransactionData, ptr %29, i64 %31
  %33 = getelementptr inbounds nuw %struct.GlobalTransactionData, ptr %32, i32 0, i32 0
  store ptr %28, ptr %33, align 8
  %34 = load ptr, ptr %2, align 8
  %35 = load i32, ptr %3, align 4
  %36 = sext i32 %35 to i64
  %37 = getelementptr inbounds %struct.GlobalTransactionData, ptr %34, i64 %36
  %38 = load ptr, ptr @TwoPhaseState, align 8
  %39 = getelementptr inbounds nuw %struct.TwoPhaseStateData, ptr %38, i32 0, i32 0
  store ptr %37, ptr %39, align 8
  %40 = load ptr, ptr @PreparedXactProcs, align 8
  %41 = load i32, ptr %3, align 4
  %42 = sext i32 %41 to i64
  %43 = getelementptr inbounds %struct.PGPROC, ptr %40, i64 %42
  %44 = load ptr, ptr @ProcGlobal, align 8
  %45 = getelementptr inbounds nuw %struct.PROC_HDR, ptr %44, i32 0, i32 0
  %46 = load ptr, ptr %45, align 8
  %47 = getelementptr inbounds %struct.PGPROC, ptr %46, i64 0
  %48 = ptrtoint ptr %43 to i64
  %49 = ptrtoint ptr %47 to i64
  %50 = sub i64 %48, %49
  %51 = sdiv exact i64 %50, 832
  %52 = trunc i64 %51 to i32
  %53 = load ptr, ptr %2, align 8
  %54 = load i32, ptr %3, align 4
  %55 = sext i32 %54 to i64
  %56 = getelementptr inbounds %struct.GlobalTransactionData, ptr %53, i64 %55
  %57 = getelementptr inbounds nuw %struct.GlobalTransactionData, ptr %56, i32 0, i32 1
  store i32 %52, ptr %57, align 8
  br label %58

58:                                               ; preds = %25
  %59 = load i32, ptr %3, align 4
  %60 = add i32 %59, 1
  store i32 %60, ptr %3, align 4
  br label %21, !llvm.loop !6

61:                                               ; preds = %21
  call void @llvm.lifetime.end.p0(i64 4, ptr %3) #12
  call void @llvm.lifetime.end.p0(i64 8, ptr %2) #12
  br label %63

62:                                               ; preds = %0
  br label %63

63:                                               ; preds = %62, %61
  call void @llvm.lifetime.end.p0(i64 1, ptr %1) #12
  ret void
}