; Function Attrs: nounwind uwtable
define dso_local void @TwoPhaseShmemInit() local_unnamed_addr #0 {
  %1 = alloca i8, align 1
  call void @llvm.lifetime.start.p0(i64 1, ptr nonnull %1) #14
  %2 = load i32, ptr @max_prepared_xacts, align 4
  %3 = sext i32 %2 to i64
  %4 = tail call i64 @mul_size(i64 noundef %3, i64 noundef 8) #14
  %5 = tail call i64 @add_size(i64 noundef 16, i64 noundef %4) #14
  %6 = add i64 %5, 7
  %7 = and i64 %6, -8
  %8 = load i32, ptr @max_prepared_xacts, align 4
  %9 = sext i32 %8 to i64
  %10 = tail call i64 @mul_size(i64 noundef %9, i64 noundef 256) #14
  %11 = tail call i64 @add_size(i64 noundef %7, i64 noundef %10) #14
  %12 = call ptr @ShmemInitStruct(ptr noundef nonnull @.str, i64 noundef %11, ptr noundef nonnull %1) #14
  store ptr %12, ptr @TwoPhaseState, align 8
  %13 = load i8, ptr @IsUnderPostmaster, align 1, !range !4, !noundef !5
  %14 = trunc nuw i8 %13 to i1
  br i1 %14, label %.loopexit, label %15

15:                                               ; preds = %0
  store ptr null, ptr %12, align 8
  %16 = getelementptr inbounds nuw i8, ptr %12, i64 8
  store i32 0, ptr %16, align 8
  %17 = load i32, ptr @max_prepared_xacts, align 4
  %18 = sext i32 %17 to i64
  %19 = shl nsw i64 %18, 3
  %20 = add nsw i64 %19, 23
  %21 = and i64 %20, -8
  %22 = getelementptr inbounds nuw i8, ptr %12, i64 %21
  %23 = icmp sgt i32 %17, 0
  br i1 %23, label %.lr.ph, label %.loopexit

.lr.ph:                                           ; preds = %15, %.lr.ph
  %24 = phi ptr [ %25, %.lr.ph ], [ null, %15 ]
  %indvars.iv = phi i64 [ %indvars.iv.next, %.lr.ph ], [ 0, %15 ]
  %25 = getelementptr inbounds nuw %struct.GlobalTransactionData, ptr %22, i64 %indvars.iv
  store ptr %24, ptr %25, align 8
  store ptr %25, ptr %12, align 8
  %26 = load ptr, ptr @PreparedXactProcs, align 8
  %27 = getelementptr inbounds nuw %struct.PGPROC, ptr %26, i64 %indvars.iv
  %28 = load ptr, ptr @ProcGlobal, align 8
  %29 = load ptr, ptr %28, align 8
  %30 = ptrtoint ptr %27 to i64
  %31 = ptrtoint ptr %29 to i64
  %32 = sub i64 %30, %31
  %33 = sdiv exact i64 %32, 832
  %34 = trunc i64 %33 to i32
  %35 = getelementptr inbounds nuw i8, ptr %25, i64 8
  store i32 %34, ptr %35, align 8
  %indvars.iv.next = add nuw nsw i64 %indvars.iv, 1
  %36 = load i32, ptr @max_prepared_xacts, align 4
  %37 = sext i32 %36 to i64
  %38 = icmp slt i64 %indvars.iv.next, %37
  br i1 %38, label %.lr.ph, label %.loopexit, !llvm.loop !6

.loopexit:                                        ; preds = %.lr.ph, %15, %0
  call void @llvm.lifetime.end.p0(i64 1, ptr nonnull %1) #14
  ret void
}